target datalayout = "e-m:e-p270:32:32-p271:32:32-p272:64:64-i64:64-i128:128-f80:128-n8:16:32:64-S128"
target triple = "x86_64-pc-linux-gnu"

%struct.jpeg_decompress_struct = type { ptr, ptr, ptr, ptr, i32, i32, ptr, i32, i32, i32, i32, i32, i32, i32, double, i32, i32, i32, i32, i32, i32, i32, i32, i32, i32, i32, i32, i32, i32, i32, i32, i32, i32, ptr, i32, i32, i32, i32, i32, ptr, [4 x ptr], [4 x ptr], [4 x ptr], i32, ptr, i32, i32, [16 x i8], [16 x i8], [16 x i8], i32, i32, i8, i8, i8, i16, i16, i32, i8, i32, ptr, i32, i32, i32, i32, ptr, i32, [4 x ptr], i32, i32, i32, [10 x i32], i32, i32, i32, i32, i32, ptr, ptr, ptr, ptr, ptr, ptr, ptr, ptr, ptr, ptr, ptr }
%struct.jpeg_memory_mgr = type { ptr, ptr, ptr, ptr, ptr, ptr, ptr, ptr, ptr, ptr, ptr, i64, i64 }
%struct.my_idct_controller = type { %struct.jpeg_inverse_dct, [10 x i32] }
%struct.jpeg_inverse_dct = type { ptr, [10 x ptr] }
%struct.jpeg_component_info = type { i32, i32, i32, i32, i32, i32, i32, i32, i32, i32, i32, i32, i32, i32, i32, i32, i32, i32, i32, ptr, ptr }

; Function Attrs: nounwind uwtable
define hidden void @jIIDCT(ptr noundef %0) #0 {
  %2 = alloca ptr, align 8
  %3 = alloca ptr, align 8
  %4 = alloca i32, align 4
  %5 = alloca ptr, align 8
  store ptr %0, ptr %2, align 8
  %6 = load ptr, ptr %2, align 8
  %7 = getelementptr inbounds %struct.jpeg_decompress_struct, ptr %6, i32 0, i32 1
  %8 = load ptr, ptr %7, align 8
  %9 = getelementptr inbounds %struct.jpeg_memory_mgr, ptr %8, i32 0, i32 0
  %10 = load ptr, ptr %9, align 8
  %11 = load ptr, ptr %2, align 8
  %12 = call ptr %10(ptr noundef %11, i32 noundef 1, i64 noundef 128)
  store ptr %12, ptr %3, align 8
  %13 = load ptr, ptr %3, align 8
  %14 = load ptr, ptr %2, align 8
  %15 = getelementptr inbounds %struct.jpeg_decompress_struct, ptr %14, i32 0, i32 84
  store ptr %13, ptr %15, align 8
  %16 = load ptr, ptr %3, align 8
  %17 = getelementptr inbounds %struct.my_idct_controller, ptr %16, i32 0, i32 0
  %18 = getelementptr inbounds %struct.jpeg_inverse_dct, ptr %17, i32 0, i32 0
  store ptr @start_pass, ptr %18, align 8
  store i32 0, ptr %4, align 4
  %19 = load ptr, ptr %2, align 8
  %20 = getelementptr inbounds %struct.jpeg_decompress_struct, ptr %19, i32 0, i32 44
  %21 = load ptr, ptr %20, align 8
  store ptr %21, ptr %5, align 8
  br label %22

22:                                               ; preds = %46, %1
  %23 = load i32, ptr %4, align 4
  %24 = load ptr, ptr %2, align 8
  %25 = getelementptr inbounds %struct.jpeg_decompress_struct, ptr %24, i32 0, i32 9
  %26 = load i32, ptr %25, align 8
  %27 = icmp slt i32 %23, %26
  br i1 %27, label %28, label %51

28:                                               ; preds = %22
  %29 = load ptr, ptr %2, align 8
  %30 = getelementptr inbounds %struct.jpeg_decompress_struct, ptr %29, i32 0, i32 1
  %31 = load ptr, ptr %30, align 8
  %32 = getelementptr inbounds %struct.jpeg_memory_mgr, ptr %31, i32 0, i32 0
  %33 = load ptr, ptr %32, align 8
  %34 = load ptr, ptr %2, align 8
  %35 = call ptr %33(ptr noundef %34, i32 noundef 1, i64 noundef 256)
  %36 = load ptr, ptr %5, align 8
  %37 = getelementptr inbounds %struct.jpeg_component_info, ptr %36, i32 0, i32 20
  store ptr %35, ptr %37, align 8
  %38 = load ptr, ptr %5, align 8
  %39 = getelementptr inbounds %struct.jpeg_component_info, ptr %38, i32 0, i32 20
  %40 = load ptr, ptr %39, align 8
  call void @llvm.memset.p0.i64(ptr align 1 %40, i8 0, i64 256, i1 false)
  %41 = load ptr, ptr %3, align 8
  %42 = getelementptr inbounds %struct.my_idct_controller, ptr %41, i32 0, i32 1
  %43 = load i32, ptr %4, align 4
  %44 = sext i32 %43 to i64
  %45 = getelementptr inbounds [10 x i32], ptr %42, i64 0, i64 %44
  store i32 -1, ptr %45, align 4
  br label %46

46:                                               ; preds = %28
  %47 = load i32, ptr %4, align 4
  %48 = add nsw i32 %47, 1
  store i32 %48, ptr %4, align 4
  %49 = load ptr, ptr %5, align 8
  %50 = getelementptr inbounds %struct.jpeg_component_info, ptr %49, i32 1
  store ptr %50, ptr %5, align 8
  br label %22, !llvm.loop !6

51:                                               ; preds = %22
  ret void
}