; Function Attrs: nounwind uwtable
define hidden void @jIIDCT(ptr noundef %0) local_unnamed_addr #0 {
  %2 = getelementptr inbounds i8, ptr %0, i64 8
  %3 = load ptr, ptr %2, align 8
  %4 = load ptr, ptr %3, align 8
  %5 = tail call ptr %4(ptr noundef %0, i32 noundef 1, i64 noundef 128) #3
  %6 = getelementptr inbounds i8, ptr %0, i64 600
  store ptr %5, ptr %6, align 8
  store ptr @start_pass, ptr %5, align 8
  %7 = getelementptr inbounds i8, ptr %0, i64 56
  %8 = load i32, ptr %7, align 8
  %9 = icmp sgt i32 %8, 0
  br i1 %9, label %.lr.ph, label %._crit_edge

.lr.ph:                                           ; preds = %1
  %10 = getelementptr inbounds i8, ptr %0, i64 304
  %11 = load ptr, ptr %10, align 8
  %12 = getelementptr inbounds i8, ptr %5, i64 88
  br label %13

13:                                               ; preds = %.lr.ph, %13
  %indvars.iv = phi i64 [ 0, %.lr.ph ], [ %indvars.iv.next, %13 ]
  %.017 = phi ptr [ %11, %.lr.ph ], [ %19, %13 ]
  %14 = load ptr, ptr %2, align 8
  %15 = load ptr, ptr %14, align 8
  %16 = tail call ptr %15(ptr noundef nonnull %0, i32 noundef 1, i64 noundef 256) #3
  %17 = getelementptr inbounds i8, ptr %.017, i64 88
  store ptr %16, ptr %17, align 8
  tail call void @llvm.memset.p0.i64(ptr noundef nonnull align 1 dereferenceable(256) %16, i8 0, i64 256, i1 false)
  %18 = getelementptr inbounds [10 x i32], ptr %12, i64 0, i64 %indvars.iv
  store i32 -1, ptr %18, align 4
  %indvars.iv.next = add nuw nsw i64 %indvars.iv, 1
  %19 = getelementptr inbounds i8, ptr %.017, i64 96
  %20 = load i32, ptr %7, align 8
  %21 = sext i32 %20 to i64
  %22 = icmp slt i64 %indvars.iv.next, %21
  br i1 %22, label %13, label %._crit_edge, !llvm.loop !6

._crit_edge:                                      ; preds = %13, %1
  ret void
}